target datalayout = "e-m:e-p270:32:32-p271:32:32-p272:64:64-i64:64-i128:128-f80:128-n8:16:32:64-S128"
target triple = "x86_64-pc-linux-gnu"

%struct.mbedtls_psa_mac_operation_t = type { i32, %union.anon }
%union.anon = type { %struct.mbedtls_psa_hmac_operation_t }
%struct.mbedtls_psa_hmac_operation_t = type { i32, %struct.psa_hash_operation_s, [144 x i8] }
%struct.psa_hash_operation_s = type { i32, %union.psa_driver_hash_context_t }
%union.psa_driver_hash_context_t = type { %struct.mbedtls_psa_hash_operation_t }
%struct.mbedtls_psa_hash_operation_t = type { i32, %union.anon.0 }
%union.anon.0 = type { %struct.mbedtls_sha512_context }
%struct.mbedtls_sha512_context = type { [2 x i64], [8 x i64], [128 x i8], i32 }

; Function Attrs: nounwind uwtable
define hidden i32 @mbedtls_psa_mac_sign_finish(ptr noundef %0, ptr noundef %1, i64 noundef %2, ptr noundef %3) #0 {
  %5 = alloca i32, align 4
  %6 = alloca ptr, align 8
  %7 = alloca ptr, align 8
  %8 = alloca i64, align 8
  %9 = alloca ptr, align 8
  %10 = alloca i32, align 4
  %11 = alloca i32, align 4
  store ptr %0, ptr %6, align 8, !tbaa !3
  store ptr %1, ptr %7, align 8, !tbaa !12
  store i64 %2, ptr %8, align 8, !tbaa !14
  store ptr %3, ptr %9, align 8, !tbaa !17
  call void @llvm.lifetime.start.p0(i64 4, ptr %10) #6
  store i32 -151, ptr %10, align 4, !tbaa !16
  %12 = load ptr, ptr %6, align 8, !tbaa !3
  %13 = getelementptr inbounds nuw %struct.mbedtls_psa_mac_operation_t, ptr %12, i32 0, i32 0
  %14 = load i32, ptr %13, align 8, !tbaa !7
  %15 = icmp eq i32 %14, 0
  br i1 %15, label %16, label %17

16:                                               ; preds = %4
  store i32 -137, ptr %5, align 4
  store i32 1, ptr %11, align 4
  br label %29

17:                                               ; preds = %4
  %18 = load ptr, ptr %6, align 8, !tbaa !3
  %19 = load ptr, ptr %7, align 8, !tbaa !12
  %20 = load i64, ptr %8, align 8, !tbaa !14
  %21 = call i32 @psa_mac_finish_internal(ptr noundef %18, ptr noundef %19, i64 noundef %20)
  store i32 %21, ptr %10, align 4, !tbaa !16
  %22 = load i32, ptr %10, align 4, !tbaa !16
  %23 = icmp eq i32 %22, 0
  br i1 %23, label %24, label %27

24:                                               ; preds = %17
  %25 = load i64, ptr %8, align 8, !tbaa !14
  %26 = load ptr, ptr %9, align 8, !tbaa !17
  store i64 %25, ptr %26, align 8, !tbaa !14
  br label %27

27:                                               ; preds = %24, %17
  %28 = load i32, ptr %10, align 4, !tbaa !16
  store i32 %28, ptr %5, align 4
  store i32 1, ptr %11, align 4
  br label %29

29:                                               ; preds = %27, %16
  call void @llvm.lifetime.end.p0(i64 4, ptr %10) #6
  %30 = load i32, ptr %5, align 4
  ret i32 %30
}