; Function Attrs: nounwind uwtable
define hidden i32 @mbedtls_psa_mac_sign_finish(ptr noundef %0, ptr noundef writeonly captures(none) %1, i64 noundef %2, ptr noundef writeonly captures(none) %3) local_unnamed_addr #0 {
  %5 = load i32, ptr %0, align 8, !tbaa !3
  %6 = icmp eq i32 %5, 0
  br i1 %6, label %11, label %7

7:                                                ; preds = %4
  %8 = tail call fastcc i32 @psa_mac_finish_internal(ptr noundef nonnull %0, ptr noundef %1, i64 noundef %2)
  %9 = icmp eq i32 %8, 0
  br i1 %9, label %10, label %11

10:                                               ; preds = %7
  store i64 %2, ptr %3, align 8, !tbaa !13
  br label %11

11:                                               ; preds = %7, %10, %4
  %.0 = phi i32 [ -137, %4 ], [ 0, %10 ], [ %8, %7 ]
  ret i32 %.0
}